target datalayout = "e-m:e-p270:32:32-p271:32:32-p272:64:64-i64:64-i128:128-f80:128-n8:16:32:64-S128"
target triple = "x86_64-unknown-linux-gnu"

%"class.Assimp::LWOImporter" = type <{ %"class.Assimp::BaseImporter", i8, i8, i8, [5 x i8], ptr, ptr, ptr, ptr, ptr, %"class.std::vector", %"class.std::vector.3", ptr, i32, [4 x i8], ptr, i8, [3 x i8], i32, %"class.std::__cxx11::basic_string", i8, [7 x i8] }>
%"class.Assimp::BaseImporter" = type { ptr, double, double, %"class.std::__cxx11::basic_string", %"class.std::__exception_ptr::exception_ptr", ptr }
%"class.std::__exception_ptr::exception_ptr" = type { ptr }
%"class.std::vector" = type { %"struct.std::_Vector_base" }
%"struct.std::_Vector_base" = type { %"struct.std::_Vector_base<Assimp::LWO::Clip, std::allocator<Assimp::LWO::Clip>>::_Vector_impl" }
%"struct.std::_Vector_base<Assimp::LWO::Clip, std::allocator<Assimp::LWO::Clip>>::_Vector_impl" = type { %"struct.std::_Vector_base<Assimp::LWO::Clip, std::allocator<Assimp::LWO::Clip>>::_Vector_impl_data" }
%"struct.std::_Vector_base<Assimp::LWO::Clip, std::allocator<Assimp::LWO::Clip>>::_Vector_impl_data" = type { ptr, ptr, ptr }
%"class.std::vector.3" = type { %"struct.std::_Vector_base.4" }
%"struct.std::_Vector_base.4" = type { %"struct.std::_Vector_base<Assimp::LWO::Envelope, std::allocator<Assimp::LWO::Envelope>>::_Vector_impl" }
%"struct.std::_Vector_base<Assimp::LWO::Envelope, std::allocator<Assimp::LWO::Envelope>>::_Vector_impl" = type { %"struct.std::_Vector_base<Assimp::LWO::Envelope, std::allocator<Assimp::LWO::Envelope>>::_Vector_impl_data" }
%"struct.std::_Vector_base<Assimp::LWO::Envelope, std::allocator<Assimp::LWO::Envelope>>::_Vector_impl_data" = type { ptr, ptr, ptr }
%"class.std::__cxx11::basic_string" = type { %"struct.std::__cxx11::basic_string<char>::_Alloc_hider", i64, %union.anon }
%"struct.std::__cxx11::basic_string<char>::_Alloc_hider" = type { ptr }
%union.anon = type { i64, [8 x i8] }
%"struct.Assimp::LWO::Layer" = type <{ %"class.std::vector.9", %"class.std::vector.14", %"class.std::vector.19", %"class.std::vector.19", %"class.std::vector.24", %"class.std::vector.29", %"struct.Assimp::LWO::NormalChannel", %"class.std::vector.43", i32, i32, i16, i16, [4 x i8], %"class.std::__cxx11::basic_string", %class.aiVector3t, i8, [3 x i8] }>
%"class.std::vector.9" = type { %"struct.std::_Vector_base.10" }
%"struct.std::_Vector_base.10" = type { %"struct.std::_Vector_base<aiVector3t<float>, std::allocator<aiVector3t<float>>>::_Vector_impl" }
%"struct.std::_Vector_base<aiVector3t<float>, std::allocator<aiVector3t<float>>>::_Vector_impl" = type { %"struct.std::_Vector_base<aiVector3t<float>, std::allocator<aiVector3t<float>>>::_Vector_impl_data" }
%"struct.std::_Vector_base<aiVector3t<float>, std::allocator<aiVector3t<float>>>::_Vector_impl_data" = type { ptr, ptr, ptr }
%"class.std::vector.14" = type { %"struct.std::_Vector_base.15" }
%"struct.std::_Vector_base.15" = type { %"struct.std::_Vector_base<unsigned int, std::allocator<unsigned int>>::_Vector_impl" }
%"struct.std::_Vector_base<unsigned int, std::allocator<unsigned int>>::_Vector_impl" = type { %"struct.std::_Vector_base<unsigned int, std::allocator<unsigned int>>::_Vector_impl_data" }
%"struct.std::_Vector_base<unsigned int, std::allocator<unsigned int>>::_Vector_impl_data" = type { ptr, ptr, ptr }
%"class.std::vector.19" = type { %"struct.std::_Vector_base.20" }
%"struct.std::_Vector_base.20" = type { %"struct.std::_Vector_base<Assimp::LWO::WeightChannel, std::allocator<Assimp::LWO::WeightChannel>>::_Vector_impl" }
%"struct.std::_Vector_base<Assimp::LWO::WeightChannel, std::allocator<Assimp::LWO::WeightChannel>>::_Vector_impl" = type { %"struct.std::_Vector_base<Assimp::LWO::WeightChannel, std::allocator<Assimp::LWO::WeightChannel>>::_Vector_impl_data" }
%"struct.std::_Vector_base<Assimp::LWO::WeightChannel, std::allocator<Assimp::LWO::WeightChannel>>::_Vector_impl_data" = type { ptr, ptr, ptr }
%"class.std::vector.24" = type { %"struct.std::_Vector_base.25" }
%"struct.std::_Vector_base.25" = type { %"struct.std::_Vector_base<Assimp::LWO::VColorChannel, std::allocator<Assimp::LWO::VColorChannel>>::_Vector_impl" }
%"struct.std::_Vector_base<Assimp::LWO::VColorChannel, std::allocator<Assimp::LWO::VColorChannel>>::_Vector_impl" = type { %"struct.std::_Vector_base<Assimp::LWO::VColorChannel, std::allocator<Assimp::LWO::VColorChannel>>::_Vector_impl_data" }
%"struct.std::_Vector_base<Assimp::LWO::VColorChannel, std::allocator<Assimp::LWO::VColorChannel>>::_Vector_impl_data" = type { ptr, ptr, ptr }
%"class.std::vector.29" = type { %"struct.std::_Vector_base.30" }
%"struct.std::_Vector_base.30" = type { %"struct.std::_Vector_base<Assimp::LWO::UVChannel, std::allocator<Assimp::LWO::UVChannel>>::_Vector_impl" }
%"struct.std::_Vector_base<Assimp::LWO::UVChannel, std::allocator<Assimp::LWO::UVChannel>>::_Vector_impl" = type { %"struct.std::_Vector_base<Assimp::LWO::UVChannel, std::allocator<Assimp::LWO::UVChannel>>::_Vector_impl_data" }
%"struct.std::_Vector_base<Assimp::LWO::UVChannel, std::allocator<Assimp::LWO::UVChannel>>::_Vector_impl_data" = type { ptr, ptr, ptr }
%"struct.Assimp::LWO::NormalChannel" = type { %"struct.Assimp::LWO::VMapEntry" }
%"struct.Assimp::LWO::VMapEntry" = type { ptr, %"class.std::__cxx11::basic_string", i32, %"class.std::vector.34", %"class.std::vector.39" }
%"class.std::vector.34" = type { %"struct.std::_Vector_base.35" }
%"struct.std::_Vector_base.35" = type { %"struct.std::_Vector_base<float, std::allocator<float>>::_Vector_impl" }
%"struct.std::_Vector_base<float, std::allocator<float>>::_Vector_impl" = type { %"struct.std::_Vector_base<float, std::allocator<float>>::_Vector_impl_data" }
%"struct.std::_Vector_base<float, std::allocator<float>>::_Vector_impl_data" = type { ptr, ptr, ptr }
%"class.std::vector.39" = type { %"struct.std::_Bvector_base" }
%"struct.std::_Bvector_base" = type { %"struct.std::_Bvector_base<std::allocator<bool>>::_Bvector_impl" }
%"struct.std::_Bvector_base<std::allocator<bool>>::_Bvector_impl" = type { %"struct.std::_Bvector_base<std::allocator<bool>>::_Bvector_impl_data" }
%"struct.std::_Bvector_base<std::allocator<bool>>::_Bvector_impl_data" = type { %"struct.std::_Bit_iterator", %"struct.std::_Bit_iterator", ptr }
%"struct.std::_Bit_iterator" = type { %"struct.std::_Bit_iterator_base.base", [4 x i8] }
%"struct.std::_Bit_iterator_base.base" = type <{ ptr, i32 }>
%"class.std::vector.43" = type { %"struct.std::_Vector_base.44" }
%"struct.std::_Vector_base.44" = type { %"struct.std::_Vector_base<Assimp::LWO::Face, std::allocator<Assimp::LWO::Face>>::_Vector_impl" }
%"struct.std::_Vector_base<Assimp::LWO::Face, std::allocator<Assimp::LWO::Face>>::_Vector_impl" = type { %"struct.std::_Vector_base<Assimp::LWO::Face, std::allocator<Assimp::LWO::Face>>::_Vector_impl_data" }
%"struct.std::_Vector_base<Assimp::LWO::Face, std::allocator<Assimp::LWO::Face>>::_Vector_impl_data" = type { ptr, ptr, ptr }
%class.aiVector3t = type { float, float, float }
%"class.__gnu_cxx::__normal_iterator" = type { ptr }
%"struct.Assimp::LWO::Face" = type <{ %struct.aiFace, i32, i32, i32, [4 x i8] }>
%struct.aiFace = type { i32, ptr }

@.str.5 = private unnamed_addr constant [33 x i8] c"LWOB: face index is out of range\00", align 1
@.str.6 = private unnamed_addr constant [25 x i8] c"LWOB: Face has 0 indices\00", align 1

; Function Attrs: mustprogress nounwind uwtable
define linkonce_odr hidden noundef i64 @_ZNKSt6vectorI10aiVector3tIfESaIS1_EE4sizeEv(ptr noundef nonnull align 8 dereferenceable(24) %this) #0 comdat align 2 {
entry:
  %this.addr = alloca ptr, align 8
  store ptr %this, ptr %this.addr, align 8
  %this1 = load ptr, ptr %this.addr, align 8
  %_M_impl = getelementptr inbounds %"struct.std::_Vector_base.10", ptr %this1, i32 0, i32 0
  %_M_finish = getelementptr inbounds %"struct.std::_Vector_base<aiVector3t<float>, std::allocator<aiVector3t<float>>>::_Vector_impl_data", ptr %_M_impl, i32 0, i32 1
  %0 = load ptr, ptr %_M_finish, align 8
  %_M_impl2 = getelementptr inbounds %"struct.std::_Vector_base.10", ptr %this1, i32 0, i32 0
  %_M_start = getelementptr inbounds %"struct.std::_Vector_base<aiVector3t<float>, std::allocator<aiVector3t<float>>>::_Vector_impl_data", ptr %_M_impl2, i32 0, i32 0
  %1 = load ptr, ptr %_M_start, align 8
  %sub.ptr.lhs.cast = ptrtoint ptr %0 to i64
  %sub.ptr.rhs.cast = ptrtoint ptr %1 to i64
  %sub.ptr.sub = sub i64 %sub.ptr.lhs.cast, %sub.ptr.rhs.cast
  %sub.ptr.div = sdiv exact i64 %sub.ptr.sub, 12
  ret i64 %sub.ptr.div
}

; Function Attrs: mustprogress nounwind uwtable
define linkonce_odr hidden noundef nonnull align 8 dereferenceable(8) ptr @_ZN9__gnu_cxx17__normal_iteratorIPN6Assimp3LWO4FaceESt6vectorIS3_SaIS3_EEEppEv(ptr noundef nonnull align 8 dereferenceable(8) %this) #0 comdat align 2 {
entry:
  %this.addr = alloca ptr, align 8
  store ptr %this, ptr %this.addr, align 8
  %this1 = load ptr, ptr %this.addr, align 8
  %_M_current = getelementptr inbounds %"class.__gnu_cxx::__normal_iterator", ptr %this1, i32 0, i32 0
  %0 = load ptr, ptr %_M_current, align 8
  %incdec.ptr = getelementptr inbounds %"struct.Assimp::LWO::Face", ptr %0, i32 1
  store ptr %incdec.ptr, ptr %_M_current, align 8
  ret ptr %this1
}

; Function Attrs: mustprogress nounwind uwtable
define linkonce_odr hidden noundef nonnull align 8 dereferenceable(28) ptr @_ZNK9__gnu_cxx17__normal_iteratorIPN6Assimp3LWO4FaceESt6vectorIS3_SaIS3_EEEdeEv(ptr noundef nonnull align 8 dereferenceable(8) %this) #0 comdat align 2 {
entry:
  %this.addr = alloca ptr, align 8
  store ptr %this, ptr %this.addr, align 8
  %this1 = load ptr, ptr %this.addr, align 8
  %_M_current = getelementptr inbounds %"class.__gnu_cxx::__normal_iterator", ptr %this1, i32 0, i32 0
  %0 = load ptr, ptr %_M_current, align 8
  ret ptr %0
}

; Function Attrs: mustprogress uwtable
define hidden void @_ZN6Assimp11LWOImporter19CopyFaceIndicesLWOBERN9__gnu_cxx17__normal_iteratorIPNS_3LWO4FaceESt6vectorIS4_SaIS4_EEEERPtPKtj(ptr noundef nonnull align 8 dereferenceable(233) %this, ptr noundef nonnull align 8 dereferenceable(8) %it, ptr noundef nonnull align 8 dereferenceable(8) %cursor, ptr noundef %end, i32 noundef %max) #2 align 2 {
entry:
  %this.addr = alloca ptr, align 8
  %it.addr = alloca ptr, align 8
  %cursor.addr = alloca ptr, align 8
  %end.addr = alloca ptr, align 8
  %max.addr = alloca i32, align 4
  %face = alloca ptr, align 8
  %numIndices = alloca i16, align 2
  %i = alloca i32, align 4
  %mi = alloca ptr, align 8
  %index = alloca i16, align 2
  %surface = alloca i16, align 2
  %numPolygons = alloca i16, align 2
  store ptr %this, ptr %this.addr, align 8
  store ptr %it, ptr %it.addr, align 8
  store ptr %cursor, ptr %cursor.addr, align 8
  store ptr %end, ptr %end.addr, align 8
  store i32 %max, ptr %max.addr, align 4
  %this1 = load ptr, ptr %this.addr, align 8
  br label %while.cond

while.cond:                                       ; preds = %if.end40, %entry
  %0 = load ptr, ptr %cursor.addr, align 8
  %1 = load ptr, ptr %0, align 8
  %2 = load ptr, ptr %end.addr, align 8
  %cmp = icmp ult ptr %1, %2
  br i1 %cmp, label %land.rhs, label %land.end

land.rhs:                                         ; preds = %while.cond
  %3 = load i32, ptr %max.addr, align 4
  %dec = add i32 %3, -1
  store i32 %dec, ptr %max.addr, align 4
  %tobool = icmp ne i32 %3, 0
  br label %land.end

land.end:                                         ; preds = %land.rhs, %while.cond
  %4 = phi i1 [ false, %while.cond ], [ %tobool, %land.rhs ]
  br i1 %4, label %while.body, label %while.end

while.body:                                       ; preds = %land.end
  %5 = load ptr, ptr %it.addr, align 8
  %call = call noundef nonnull align 8 dereferenceable(28) ptr @_ZNK9__gnu_cxx17__normal_iteratorIPN6Assimp3LWO4FaceESt6vectorIS3_SaIS3_EEEdeEv(ptr noundef nonnull align 8 dereferenceable(8) %5) #13
  store ptr %call, ptr %face, align 8
  %6 = load ptr, ptr %it.addr, align 8
  %call2 = call noundef nonnull align 8 dereferenceable(8) ptr @_ZN9__gnu_cxx17__normal_iteratorIPN6Assimp3LWO4FaceESt6vectorIS3_SaIS3_EEEppEv(ptr noundef nonnull align 8 dereferenceable(8) %6) #13
  %7 = load ptr, ptr %cursor.addr, align 8
  %8 = load ptr, ptr %7, align 8
  %incdec.ptr = getelementptr inbounds i16, ptr %8, i32 1
  store ptr %incdec.ptr, ptr %7, align 8
  call void @llvm.memcpy.p0.p0.i64(ptr align 2 %numIndices, ptr align 2 %8, i64 2, i1 false)
  %9 = load i16, ptr %numIndices, align 2
  %conv = zext i16 %9 to i32
  %10 = load ptr, ptr %face, align 8
  %mNumIndices = getelementptr inbounds %struct.aiFace, ptr %10, i32 0, i32 0
  store i32 %conv, ptr %mNumIndices, align 8
  %11 = load ptr, ptr %face, align 8
  %mNumIndices3 = getelementptr inbounds %struct.aiFace, ptr %11, i32 0, i32 0
  %12 = load i32, ptr %mNumIndices3, align 8
  %tobool4 = icmp ne i32 %12, 0
  br i1 %tobool4, label %if.then, label %if.else

if.then:                                          ; preds = %while.body
  %13 = load ptr, ptr %cursor.addr, align 8
  %14 = load ptr, ptr %13, align 8
  %15 = load ptr, ptr %face, align 8
  %mNumIndices5 = getelementptr inbounds %struct.aiFace, ptr %15, i32 0, i32 0
  %16 = load i32, ptr %mNumIndices5, align 8
  %idx.ext = zext i32 %16 to i64
  %add.ptr = getelementptr inbounds i16, ptr %14, i64 %idx.ext
  %17 = load ptr, ptr %end.addr, align 8
  %cmp6 = icmp uge ptr %add.ptr, %17
  br i1 %cmp6, label %if.then7, label %if.end

if.then7:                                         ; preds = %if.then
  br label %while.end

if.end:                                           ; preds = %if.then
  %18 = load ptr, ptr %face, align 8
  %mNumIndices8 = getelementptr inbounds %struct.aiFace, ptr %18, i32 0, i32 0
  %19 = load i32, ptr %mNumIndices8, align 8
  %conv9 = zext i32 %19 to i64
  %20 = call { i64, i1 } @llvm.umul.with.overflow.i64(i64 %conv9, i64 4)
  %21 = extractvalue { i64, i1 } %20, 1
  %22 = extractvalue { i64, i1 } %20, 0
  %23 = select i1 %21, i64 -1, i64 %22
  %call10 = call noalias noundef nonnull ptr @_Znam(i64 noundef %23) #15
  %24 = load ptr, ptr %face, align 8
  %mIndices = getelementptr inbounds %struct.aiFace, ptr %24, i32 0, i32 1
  store ptr %call10, ptr %mIndices, align 8
  store i32 0, ptr %i, align 4
  br label %for.cond

for.cond:                                         ; preds = %for.inc, %if.end
  %25 = load i32, ptr %i, align 4
  %26 = load ptr, ptr %face, align 8
  %mNumIndices11 = getelementptr inbounds %struct.aiFace, ptr %26, i32 0, i32 0
  %27 = load i32, ptr %mNumIndices11, align 8
  %cmp12 = icmp ult i32 %25, %27
  br i1 %cmp12, label %for.body, label %for.end

for.body:                                         ; preds = %for.cond
  %28 = load ptr, ptr %face, align 8
  %mIndices13 = getelementptr inbounds %struct.aiFace, ptr %28, i32 0, i32 1
  %29 = load ptr, ptr %mIndices13, align 8
  %30 = load i32, ptr %i, align 4
  %idxprom = zext i32 %30 to i64
  %arrayidx = getelementptr inbounds i32, ptr %29, i64 %idxprom
  store ptr %arrayidx, ptr %mi, align 8
  %31 = load ptr, ptr %cursor.addr, align 8
  %32 = load ptr, ptr %31, align 8
  %incdec.ptr14 = getelementptr inbounds i16, ptr %32, i32 1
  store ptr %incdec.ptr14, ptr %31, align 8
  call void @llvm.memcpy.p0.p0.i64(ptr align 2 %index, ptr align 2 %32, i64 2, i1 false)
  %33 = load i16, ptr %index, align 2
  %conv15 = zext i16 %33 to i32
  %34 = load ptr, ptr %mi, align 8
  store i32 %conv15, ptr %34, align 4
  %35 = load ptr, ptr %mi, align 8
  %36 = load i32, ptr %35, align 4
  %conv16 = zext i32 %36 to i64
  %mCurLayer = getelementptr inbounds %"class.Assimp::LWOImporter", ptr %this1, i32 0, i32 6
  %37 = load ptr, ptr %mCurLayer, align 8
  %mTempPoints = getelementptr inbounds %"struct.Assimp::LWO::Layer", ptr %37, i32 0, i32 0
  %call17 = call noundef i64 @_ZNKSt6vectorI10aiVector3tIfESaIS1_EE4sizeEv(ptr noundef nonnull align 8 dereferenceable(24) %mTempPoints) #13
  %cmp18 = icmp ugt i64 %conv16, %call17
  br i1 %cmp18, label %if.then19, label %if.end25

if.then19:                                        ; preds = %for.body
  %call20 = call noundef ptr @_ZN6Assimp13DefaultLogger3getEv()
  call void @_ZN6Assimp6Logger4warnEPKc(ptr noundef nonnull align 8 dereferenceable(12) %call20, ptr noundef @.str.5)
  %mCurLayer21 = getelementptr inbounds %"class.Assimp::LWOImporter", ptr %this1, i32 0, i32 6
  %38 = load ptr, ptr %mCurLayer21, align 8
  %mTempPoints22 = getelementptr inbounds %"struct.Assimp::LWO::Layer", ptr %38, i32 0, i32 0
  %call23 = call noundef i64 @_ZNKSt6vectorI10aiVector3tIfESaIS1_EE4sizeEv(ptr noundef nonnull align 8 dereferenceable(24) %mTempPoints22) #13
  %conv24 = trunc i64 %call23 to i32
  %sub = sub i32 %conv24, 1
  %39 = load ptr, ptr %mi, align 8
  store i32 %sub, ptr %39, align 4
  br label %if.end25

if.end25:                                         ; preds = %if.then19, %for.body
  br label %for.inc

for.inc:                                          ; preds = %if.end25
  %40 = load i32, ptr %i, align 4
  %inc = add i32 %40, 1
  store i32 %inc, ptr %i, align 4
  br label %for.cond, !llvm.loop !9

for.end:                                          ; preds = %for.cond
  br label %if.end27

if.else:                                          ; preds = %while.body
  %call26 = call noundef ptr @_ZN6Assimp13DefaultLogger3getEv()
  call void @_ZN6Assimp6Logger4warnEPKc(ptr noundef nonnull align 8 dereferenceable(12) %call26, ptr noundef @.str.6)
  br label %if.end27

if.end27:                                         ; preds = %if.else, %for.end
  %41 = load ptr, ptr %cursor.addr, align 8
  %42 = load ptr, ptr %41, align 8
  %incdec.ptr28 = getelementptr inbounds i16, ptr %42, i32 1
  store ptr %incdec.ptr28, ptr %41, align 8
  call void @llvm.memcpy.p0.p0.i64(ptr align 2 %surface, ptr align 2 %42, i64 2, i1 false)
  %43 = load i16, ptr %surface, align 2
  %conv29 = sext i16 %43 to i32
  %cmp30 = icmp slt i32 %conv29, 0
  br i1 %cmp30, label %if.then31, label %if.end40

if.then31:                                        ; preds = %if.end27
  %44 = load i16, ptr %surface, align 2
  %conv32 = sext i16 %44 to i32
  %sub33 = sub nsw i32 0, %conv32
  %conv34 = trunc i32 %sub33 to i16
  store i16 %conv34, ptr %surface, align 2
  %45 = load ptr, ptr %cursor.addr, align 8
  %46 = load ptr, ptr %45, align 8
  %incdec.ptr35 = getelementptr inbounds i16, ptr %46, i32 1
  store ptr %incdec.ptr35, ptr %45, align 8
  call void @llvm.memcpy.p0.p0.i64(ptr align 2 %numPolygons, ptr align 2 %46, i64 2, i1 false)
  %47 = load ptr, ptr %cursor.addr, align 8
  %48 = load ptr, ptr %47, align 8
  %49 = load ptr, ptr %end.addr, align 8
  %cmp36 = icmp ult ptr %48, %49
  br i1 %cmp36, label %if.then37, label %if.end39

if.then37:                                        ; preds = %if.then31
  %50 = load ptr, ptr %it.addr, align 8
  %51 = load ptr, ptr %cursor.addr, align 8
  %52 = load ptr, ptr %end.addr, align 8
  %53 = load i16, ptr %numPolygons, align 2
  %conv38 = zext i16 %53 to i32
  call void @_ZN6Assimp11LWOImporter19CopyFaceIndicesLWOBERN9__gnu_cxx17__normal_iteratorIPNS_3LWO4FaceESt6vectorIS4_SaIS4_EEEERPtPKtj(ptr noundef nonnull align 8 dereferenceable(233) %this1, ptr noundef nonnull align 8 dereferenceable(8) %50, ptr noundef nonnull align 8 dereferenceable(8) %51, ptr noundef %52, i32 noundef %conv38)
  br label %if.end39

if.end39:                                         ; preds = %if.then37, %if.then31
  br label %if.end40

if.end40:                                         ; preds = %if.end39, %if.end27
  %54 = load i16, ptr %surface, align 2
  %conv41 = sext i16 %54 to i32
  %sub42 = sub nsw i32 %conv41, 1
  %55 = load ptr, ptr %face, align 8
  %surfaceIndex = getelementptr inbounds %"struct.Assimp::LWO::Face", ptr %55, i32 0, i32 1
  store i32 %sub42, ptr %surfaceIndex, align 8
  br label %while.cond, !llvm.loop !10

while.end:                                        ; preds = %if.then7, %land.end
  ret void
}