; Function Attrs: mustprogress uwtable
define hidden void @_ZN6Assimp11LWOImporter19CopyFaceIndicesLWOBERN9__gnu_cxx17__normal_iteratorIPNS_3LWO4FaceESt6vectorIS4_SaIS4_EEEERPtPKtj(ptr nocapture noundef nonnull readonly align 8 dereferenceable(233) %this, ptr nocapture noundef nonnull align 8 dereferenceable(8) %it, ptr nocapture noundef nonnull align 8 dereferenceable(8) %cursor, ptr noundef %end, i32 noundef %max) local_unnamed_addr #0 align 2 {
entry:
  %0 = load ptr, ptr %cursor, align 8
  %cmp33 = icmp ult ptr %0, %end
  br i1 %cmp33, label %land.rhs.lr.ph, label %while.end

land.rhs.lr.ph:                                   ; preds = %entry
  %mCurLayer = getelementptr inbounds i8, ptr %this, i64 88
  br label %land.rhs

land.rhs:                                         ; preds = %land.rhs.lr.ph, %if.end40
  %max.addr.034 = phi i32 [ %max, %land.rhs.lr.ph ], [ %dec, %if.end40 ]
  %dec = add i32 %max.addr.034, -1
  %tobool.not = icmp eq i32 %max.addr.034, 0
  br i1 %tobool.not, label %while.end, label %while.body

while.body:                                       ; preds = %land.rhs
  %1 = load ptr, ptr %it, align 8
  %incdec.ptr.i = getelementptr inbounds i8, ptr %1, i64 32
  store ptr %incdec.ptr.i, ptr %it, align 8
  %2 = load ptr, ptr %cursor, align 8
  %incdec.ptr = getelementptr inbounds i8, ptr %2, i64 2
  store ptr %incdec.ptr, ptr %cursor, align 8
  %numIndices.0.copyload = load i16, ptr %2, align 2
  %conv = zext i16 %numIndices.0.copyload to i32
  store i32 %conv, ptr %1, align 8
  %tobool4.not = icmp eq i16 %numIndices.0.copyload, 0
  br i1 %tobool4.not, label %if.else, label %if.then

if.then:                                          ; preds = %while.body
  %3 = load ptr, ptr %cursor, align 8
  %idx.ext = zext i16 %numIndices.0.copyload to i64
  %add.ptr = getelementptr inbounds i16, ptr %3, i64 %idx.ext
  %cmp6.not = icmp ult ptr %add.ptr, %end
  br i1 %cmp6.not, label %if.end, label %while.end

if.end:                                           ; preds = %if.then
  %4 = shl nuw nsw i64 %idx.ext, 2
  %call10 = tail call noalias noundef nonnull ptr @_Znam(i64 noundef %4) #18
  %mIndices = getelementptr inbounds i8, ptr %1, i64 8
  store ptr %call10, ptr %mIndices, align 8
  %5 = load i32, ptr %1, align 8
  %cmp1231.not = icmp eq i32 %5, 0
  br i1 %cmp1231.not, label %if.end27, label %for.body

for.body:                                         ; preds = %if.end, %for.inc
  %indvars.iv = phi i64 [ %indvars.iv.next, %for.inc ], [ 0, %if.end ]
  %6 = load ptr, ptr %mIndices, align 8
  %arrayidx = getelementptr inbounds i32, ptr %6, i64 %indvars.iv
  %7 = load ptr, ptr %cursor, align 8
  %incdec.ptr14 = getelementptr inbounds i8, ptr %7, i64 2
  store ptr %incdec.ptr14, ptr %cursor, align 8
  %index.0.copyload = load i16, ptr %7, align 2
  %conv15 = zext i16 %index.0.copyload to i32
  store i32 %conv15, ptr %arrayidx, align 4
  %conv16 = zext i16 %index.0.copyload to i64
  %8 = load ptr, ptr %mCurLayer, align 8
  %_M_finish.i = getelementptr inbounds i8, ptr %8, i64 8
  %9 = load ptr, ptr %_M_finish.i, align 8
  %10 = load ptr, ptr %8, align 8
  %sub.ptr.lhs.cast.i = ptrtoint ptr %9 to i64
  %sub.ptr.rhs.cast.i = ptrtoint ptr %10 to i64
  %sub.ptr.sub.i = sub i64 %sub.ptr.lhs.cast.i, %sub.ptr.rhs.cast.i
  %sub.ptr.div.i = sdiv exact i64 %sub.ptr.sub.i, 12
  %cmp18 = icmp ult i64 %sub.ptr.div.i, %conv16
  br i1 %cmp18, label %if.then19, label %for.inc

if.then19:                                        ; preds = %for.body
  %call20 = tail call noundef ptr @_ZN6Assimp13DefaultLogger3getEv()
  tail call void @_ZN6Assimp6Logger4warnEPKc(ptr noundef nonnull align 8 dereferenceable(12) %call20, ptr noundef nonnull @.str.5)
  %11 = load ptr, ptr %mCurLayer, align 8
  %_M_finish.i26 = getelementptr inbounds i8, ptr %11, i64 8
  %12 = load ptr, ptr %_M_finish.i26, align 8
  %13 = load ptr, ptr %11, align 8
  %sub.ptr.lhs.cast.i27 = ptrtoint ptr %12 to i64
  %sub.ptr.rhs.cast.i28 = ptrtoint ptr %13 to i64
  %sub.ptr.sub.i29 = sub i64 %sub.ptr.lhs.cast.i27, %sub.ptr.rhs.cast.i28
  %sub.ptr.div.i30 = sdiv exact i64 %sub.ptr.sub.i29, 12
  %conv24 = trunc i64 %sub.ptr.div.i30 to i32
  %sub = add i32 %conv24, -1
  store i32 %sub, ptr %arrayidx, align 4
  br label %for.inc

for.inc:                                          ; preds = %for.body, %if.then19
  %indvars.iv.next = add nuw nsw i64 %indvars.iv, 1
  %14 = load i32, ptr %1, align 8
  %15 = zext i32 %14 to i64
  %cmp12 = icmp ult i64 %indvars.iv.next, %15
  br i1 %cmp12, label %for.body, label %if.end27, !llvm.loop !10

if.else:                                          ; preds = %while.body
  %call26 = tail call noundef ptr @_ZN6Assimp13DefaultLogger3getEv()
  tail call void @_ZN6Assimp6Logger4warnEPKc(ptr noundef nonnull align 8 dereferenceable(12) %call26, ptr noundef nonnull @.str.6)
  br label %if.end27

if.end27:                                         ; preds = %for.inc, %if.end, %if.else
  %16 = load ptr, ptr %cursor, align 8
  %incdec.ptr28 = getelementptr inbounds i8, ptr %16, i64 2
  store ptr %incdec.ptr28, ptr %cursor, align 8
  %surface.0.copyload = load i16, ptr %16, align 2
  %cmp30 = icmp slt i16 %surface.0.copyload, 0
  br i1 %cmp30, label %if.then31, label %if.end40

if.then31:                                        ; preds = %if.end27
  %sub33 = sub i16 0, %surface.0.copyload
  %incdec.ptr35 = getelementptr inbounds i8, ptr %16, i64 4
  store ptr %incdec.ptr35, ptr %cursor, align 8
  %cmp36 = icmp ult ptr %incdec.ptr35, %end
  br i1 %cmp36, label %if.then37, label %if.end40

if.then37:                                        ; preds = %if.then31
  %numPolygons.0.copyload = load i16, ptr %incdec.ptr28, align 2
  %conv38 = zext i16 %numPolygons.0.copyload to i32
  tail call void @_ZN6Assimp11LWOImporter19CopyFaceIndicesLWOBERN9__gnu_cxx17__normal_iteratorIPNS_3LWO4FaceESt6vectorIS4_SaIS4_EEEERPtPKtj(ptr noundef nonnull align 8 dereferenceable(233) %this, ptr noundef nonnull align 8 dereferenceable(8) %it, ptr noundef nonnull align 8 dereferenceable(8) %cursor, ptr noundef nonnull %end, i32 noundef %conv38)
  br label %if.end40

if.end40:                                         ; preds = %if.then31, %if.then37, %if.end27
  %surface.0 = phi i16 [ %sub33, %if.then37 ], [ %sub33, %if.then31 ], [ %surface.0.copyload, %if.end27 ]
  %conv41 = sext i16 %surface.0 to i32
  %sub42 = add nsw i32 %conv41, -1
  %surfaceIndex = getelementptr inbounds i8, ptr %1, i64 16
  store i32 %sub42, ptr %surfaceIndex, align 8
  %17 = load ptr, ptr %cursor, align 8
  %cmp = icmp ult ptr %17, %end
  br i1 %cmp, label %land.rhs, label %while.end, !llvm.loop !11

while.end:                                        ; preds = %land.rhs, %if.then, %if.end40, %entry
  ret void
}